; Function Attrs: nounwind uwtable
define internal i64 @get_time(ptr readnone captures(none) %0) #1 {
  %2 = load ptr, ptr getelementptr inbounds nuw (i8, ptr @radix_process, i64 32), align 8, !tbaa !9
  tail call void @ossl_crypto_mutex_lock(ptr noundef %2) #12
  %.sroa.01.0.copyload = load i64, ptr getelementptr inbounds nuw (i8, ptr @radix_process, i64 48), align 8, !tbaa !82
  %3 = load ptr, ptr getelementptr inbounds nuw (i8, ptr @radix_process, i64 32), align 8, !tbaa !9
  tail call void @ossl_crypto_mutex_unlock(ptr noundef %3) #12
  %4 = tail call i64 @ossl_time_now() #12
  %.sroa.03.0.i = tail call i64 @llvm.uadd.sat.i64(i64 %4, i64 %.sroa.01.0.copyload)
  ret i64 %.sroa.03.0.i
}